target datalayout = "e-m:e-p270:32:32-p271:32:32-p272:64:64-i64:64-i128:128-f80:128-n8:16:32:64-S128"
target triple = "x86_64-pc-linux-gnu"

%"struct.Yosys::DriveBitWire" = type <{ ptr, i32, [4 x i8] }>
%"struct.Yosys::DriveChunkWire" = type { ptr, i32, i32 }

; Function Attrs: mustprogress nounwind uwtable
define noundef zeroext i1 @_ZNK5Yosys14DriveChunkWire10can_appendERKNS_12DriveBitWireE(ptr noundef nonnull align 8 dereferenceable(16) %0, ptr noundef nonnull align 8 dereferenceable(12) %1) #7 align 2 {
  %3 = alloca ptr, align 8
  %4 = alloca ptr, align 8
  store ptr %0, ptr %3, align 8, !tbaa !49
  store ptr %1, ptr %4, align 8, !tbaa !20
  %5 = load ptr, ptr %3, align 8
  %6 = load ptr, ptr %4, align 8, !tbaa !20
  %7 = getelementptr inbounds nuw %"struct.Yosys::DriveBitWire", ptr %6, i32 0, i32 0
  %8 = load ptr, ptr %7, align 8, !tbaa !25
  %9 = getelementptr inbounds nuw %"struct.Yosys::DriveChunkWire", ptr %5, i32 0, i32 0
  %10 = load ptr, ptr %9, align 8, !tbaa !51
  %11 = icmp eq ptr %8, %10
  br i1 %11, label %12, label %22

12:                                               ; preds = %2
  %13 = load ptr, ptr %4, align 8, !tbaa !20
  %14 = getelementptr inbounds nuw %"struct.Yosys::DriveBitWire", ptr %13, i32 0, i32 1
  %15 = load i32, ptr %14, align 8, !tbaa !27
  %16 = getelementptr inbounds nuw %"struct.Yosys::DriveChunkWire", ptr %5, i32 0, i32 1
  %17 = load i32, ptr %16, align 8, !tbaa !53
  %18 = getelementptr inbounds nuw %"struct.Yosys::DriveChunkWire", ptr %5, i32 0, i32 2
  %19 = load i32, ptr %18, align 4, !tbaa !54
  %20 = add nsw i32 %17, %19
  %21 = icmp eq i32 %15, %20
  br label %22

22:                                               ; preds = %12, %2
  %23 = phi i1 [ false, %2 ], [ %21, %12 ]
  ret i1 %23
}

; Function Attrs: mustprogress nounwind uwtable
define noundef zeroext i1 @_ZN5Yosys14DriveChunkWire10try_appendERKNS_12DriveBitWireE(ptr noundef nonnull align 8 dereferenceable(16) %0, ptr noundef nonnull align 8 dereferenceable(12) %1) #7 align 2 {
  %3 = alloca i1, align 1
  %4 = alloca ptr, align 8
  %5 = alloca ptr, align 8
  store ptr %0, ptr %4, align 8, !tbaa !49
  store ptr %1, ptr %5, align 8, !tbaa !20
  %6 = load ptr, ptr %4, align 8
  %7 = load ptr, ptr %5, align 8, !tbaa !20
  %8 = call noundef zeroext i1 @_ZNK5Yosys14DriveChunkWire10can_appendERKNS_12DriveBitWireE(ptr noundef nonnull align 8 dereferenceable(16) %6, ptr noundef nonnull align 8 dereferenceable(12) %7)
  br i1 %8, label %10, label %9

9:                                                ; preds = %2
  store i1 false, ptr %3, align 1
  br label %14

10:                                               ; preds = %2
  %11 = getelementptr inbounds nuw %"struct.Yosys::DriveChunkWire", ptr %6, i32 0, i32 2
  %12 = load i32, ptr %11, align 4, !tbaa !54
  %13 = add nsw i32 %12, 1
  store i32 %13, ptr %11, align 4, !tbaa !54
  store i1 true, ptr %3, align 1
  br label %14

14:                                               ; preds = %10, %9
  %15 = load i1, ptr %3, align 1
  ret i1 %15
}