; Function Attrs: mustprogress nofree norecurse nosync nounwind willreturn memory(argmem: readwrite) uwtable
define noundef zeroext i1 @_ZN5Yosys14DriveChunkWire10try_appendERKNS_12DriveBitWireE(ptr noundef nonnull align 8 captures(none) dereferenceable(16) %0, ptr noundef nonnull readonly align 8 captures(none) dereferenceable(12) %1) local_unnamed_addr #9 align 2 {
  %3 = load ptr, ptr %1, align 8, !tbaa !74
  %4 = load ptr, ptr %0, align 8, !tbaa !58
  %5 = icmp eq ptr %3, %4
  br i1 %5, label %_ZNK5Yosys14DriveChunkWire10can_appendERKNS_12DriveBitWireE.exit, label %_ZNK5Yosys14DriveChunkWire10can_appendERKNS_12DriveBitWireE.exit.thread

_ZNK5Yosys14DriveChunkWire10can_appendERKNS_12DriveBitWireE.exit: ; preds = %2
  %6 = getelementptr inbounds nuw i8, ptr %1, i64 8
  %7 = load i32, ptr %6, align 8, !tbaa !76
  %8 = getelementptr inbounds nuw i8, ptr %0, i64 8
  %9 = load i32, ptr %8, align 8, !tbaa !60
  %10 = getelementptr inbounds nuw i8, ptr %0, i64 12
  %11 = load i32, ptr %10, align 4, !tbaa !77
  %12 = add nsw i32 %11, %9
  %13 = icmp eq i32 %7, %12
  br i1 %13, label %14, label %_ZNK5Yosys14DriveChunkWire10can_appendERKNS_12DriveBitWireE.exit.thread

14:                                               ; preds = %_ZNK5Yosys14DriveChunkWire10can_appendERKNS_12DriveBitWireE.exit
  %15 = add nsw i32 %11, 1
  store i32 %15, ptr %10, align 4, !tbaa !77
  br label %_ZNK5Yosys14DriveChunkWire10can_appendERKNS_12DriveBitWireE.exit.thread

_ZNK5Yosys14DriveChunkWire10can_appendERKNS_12DriveBitWireE.exit.thread: ; preds = %2, %_ZNK5Yosys14DriveChunkWire10can_appendERKNS_12DriveBitWireE.exit, %14
  %16 = phi i1 [ false, %_ZNK5Yosys14DriveChunkWire10can_appendERKNS_12DriveBitWireE.exit ], [ true, %14 ], [ false, %2 ]
  ret i1 %16
}